target datalayout = "e-m:e-p270:32:32-p271:32:32-p272:64:64-i64:64-i128:128-f80:128-n8:16:32:64-S128"
target triple = "x86_64-pc-linux-gnu"

%"class.grpc_event_engine::experimental::TcpZerocopySendRecord" = type { %"class.grpc_event_engine::experimental::SliceBuffer", %"struct.std::atomic", %"struct.grpc_event_engine::experimental::TcpZerocopySendRecord::OutgoingOffset" }
%"class.grpc_event_engine::experimental::SliceBuffer" = type { %struct.grpc_slice_buffer }
%struct.grpc_slice_buffer = type { ptr, ptr, i64, i64, i64, [6 x %struct.grpc_slice] }
%struct.grpc_slice = type { ptr, %"union.grpc_slice::grpc_slice_data" }
%"union.grpc_slice::grpc_slice_data" = type { %"struct.grpc_slice::grpc_slice_data::grpc_slice_refcounted", [8 x i8] }
%"struct.grpc_slice::grpc_slice_data::grpc_slice_refcounted" = type { i64, ptr }
%"struct.std::atomic" = type { %"struct.std::__atomic_base" }
%"struct.std::__atomic_base" = type { i64 }
%"struct.grpc_event_engine::experimental::TcpZerocopySendRecord::OutgoingOffset" = type { i64, i64 }
%"class.grpc_event_engine::experimental::Slice" = type { %"class.grpc_event_engine::experimental::slice_detail::BaseSlice" }
%"class.grpc_event_engine::experimental::slice_detail::BaseSlice" = type { %struct.grpc_slice }
%"struct.grpc_slice::grpc_slice_data::grpc_slice_inlined" = type { i8, [23 x i8] }

; Function Attrs: mustprogress nounwind uwtable
define linkonce_odr noundef nonnull align 8 dereferenceable(32) ptr @_ZNK17grpc_event_engine12experimental12slice_detail9BaseSlice7c_sliceEv(ptr noundef nonnull align 8 dereferenceable(32) %0) #6 comdat align 2 {
  %2 = alloca ptr, align 8
  store ptr %0, ptr %2, align 8, !tbaa !37
  %3 = load ptr, ptr %2, align 8
  %4 = getelementptr inbounds nuw %"class.grpc_event_engine::experimental::slice_detail::BaseSlice", ptr %3, i32 0, i32 0
  ret ptr %4
}

; Function Attrs: mustprogress uwtable
define linkonce_odr noundef i64 @_ZNK17grpc_event_engine12experimental12slice_detail9BaseSlice4sizeEv(ptr noundef nonnull align 8 dereferenceable(32) %0) #4 comdat align 2 {
  %2 = alloca ptr, align 8
  store ptr %0, ptr %2, align 8, !tbaa !37
  %3 = load ptr, ptr %2, align 8
  %4 = call noundef nonnull align 8 dereferenceable(32) ptr @_ZNK17grpc_event_engine12experimental12slice_detail9BaseSlice7c_sliceEv(ptr noundef nonnull align 8 dereferenceable(32) %3)
  %5 = getelementptr inbounds nuw %struct.grpc_slice, ptr %4, i32 0, i32 0
  %6 = load ptr, ptr %5, align 8, !tbaa !382
  %7 = icmp ne ptr %6, null
  br i1 %7, label %8, label %13

8:                                                ; preds = %1
  %9 = call noundef nonnull align 8 dereferenceable(32) ptr @_ZNK17grpc_event_engine12experimental12slice_detail9BaseSlice7c_sliceEv(ptr noundef nonnull align 8 dereferenceable(32) %3)
  %10 = getelementptr inbounds nuw %struct.grpc_slice, ptr %9, i32 0, i32 1
  %11 = getelementptr inbounds nuw %"struct.grpc_slice::grpc_slice_data::grpc_slice_refcounted", ptr %10, i32 0, i32 0
  %12 = load i64, ptr %11, align 8, !tbaa !256
  br label %19

13:                                               ; preds = %1
  %14 = call noundef nonnull align 8 dereferenceable(32) ptr @_ZNK17grpc_event_engine12experimental12slice_detail9BaseSlice7c_sliceEv(ptr noundef nonnull align 8 dereferenceable(32) %3)
  %15 = getelementptr inbounds nuw %struct.grpc_slice, ptr %14, i32 0, i32 1
  %16 = getelementptr inbounds nuw %"struct.grpc_slice::grpc_slice_data::grpc_slice_inlined", ptr %15, i32 0, i32 0
  %17 = load i8, ptr %16, align 8, !tbaa !256
  %18 = zext i8 %17 to i64
  br label %19

19:                                               ; preds = %13, %8
  %20 = phi i64 [ %12, %8 ], [ %18, %13 ]
  ret i64 %20
}

; Function Attrs: mustprogress uwtable
define linkonce_odr noundef i64 @_ZNK17grpc_event_engine12experimental12slice_detail9BaseSlice6lengthEv(ptr noundef nonnull align 8 dereferenceable(32) %0) #4 comdat align 2 {
  %2 = alloca ptr, align 8
  store ptr %0, ptr %2, align 8, !tbaa !37
  %3 = load ptr, ptr %2, align 8
  %4 = call noundef i64 @_ZNK17grpc_event_engine12experimental12slice_detail9BaseSlice4sizeEv(ptr noundef nonnull align 8 dereferenceable(32) %3)
  ret i64 %4
}

; Function Attrs: mustprogress uwtable
define void @_ZN17grpc_event_engine12experimental21TcpZerocopySendRecord24UpdateOffsetForBytesSentEmm(ptr noundef nonnull align 8 dereferenceable(256) %0, i64 noundef %1, i64 noundef %2) #4 align 2 personality ptr @__gxx_personality_v0 {
  %4 = alloca ptr, align 8
  %5 = alloca i64, align 8
  %6 = alloca i64, align 8
  %7 = alloca i64, align 8
  %8 = alloca i64, align 8
  %9 = alloca %"class.grpc_event_engine::experimental::Slice", align 8
  %10 = alloca ptr, align 8
  %11 = alloca i32, align 4
  %12 = alloca i32, align 4
  store ptr %0, ptr %4, align 8, !tbaa !3
  store i64 %1, ptr %5, align 8, !tbaa !21
  store i64 %2, ptr %6, align 8, !tbaa !21
  %13 = load ptr, ptr %4, align 8
  call void @llvm.lifetime.start.p0(i64 8, ptr %7) #3
  %14 = load i64, ptr %5, align 8, !tbaa !21
  %15 = load i64, ptr %6, align 8, !tbaa !21
  %16 = sub i64 %14, %15
  store i64 %16, ptr %7, align 8, !tbaa !21
  br label %17

17:                                               ; preds = %51, %3
  %18 = load i64, ptr %7, align 8, !tbaa !21
  %19 = icmp ugt i64 %18, 0
  br i1 %19, label %20, label %52

20:                                               ; preds = %17
  call void @llvm.lifetime.start.p0(i64 8, ptr %8) #3
  %21 = getelementptr inbounds nuw %"class.grpc_event_engine::experimental::TcpZerocopySendRecord", ptr %13, i32 0, i32 2
  %22 = getelementptr inbounds nuw %"struct.grpc_event_engine::experimental::TcpZerocopySendRecord::OutgoingOffset", ptr %21, i32 0, i32 0
  %23 = load i64, ptr %22, align 8, !tbaa !12
  %24 = add i64 %23, -1
  store i64 %24, ptr %22, align 8, !tbaa !12
  call void @llvm.lifetime.start.p0(i64 32, ptr %9) #3
  %25 = getelementptr inbounds nuw %"class.grpc_event_engine::experimental::TcpZerocopySendRecord", ptr %13, i32 0, i32 0
  %26 = getelementptr inbounds nuw %"class.grpc_event_engine::experimental::TcpZerocopySendRecord", ptr %13, i32 0, i32 2
  %27 = getelementptr inbounds nuw %"struct.grpc_event_engine::experimental::TcpZerocopySendRecord::OutgoingOffset", ptr %26, i32 0, i32 0
  %28 = load i64, ptr %27, align 8, !tbaa !12
  call void @_ZN17grpc_event_engine12experimental11SliceBuffer8RefSliceEm(ptr dead_on_unwind writable sret(%"class.grpc_event_engine::experimental::Slice") align 8 %9, ptr noundef nonnull align 8 dereferenceable(232) %25, i64 noundef %28)
  %29 = invoke noundef i64 @_ZNK17grpc_event_engine12experimental12slice_detail9BaseSlice6lengthEv(ptr noundef nonnull align 8 dereferenceable(32) %9)
          to label %30 unwind label %40

30:                                               ; preds = %20
  store i64 %29, ptr %8, align 8, !tbaa !21
  call void @_ZN17grpc_event_engine12experimental5SliceD1Ev(ptr noundef nonnull align 8 dereferenceable(32) %9) #3
  call void @llvm.lifetime.end.p0(i64 32, ptr %9) #3
  %31 = load i64, ptr %8, align 8, !tbaa !21
  %32 = load i64, ptr %7, align 8, !tbaa !21
  %33 = icmp ugt i64 %31, %32
  br i1 %33, label %34, label %44

34:                                               ; preds = %30
  %35 = load i64, ptr %8, align 8, !tbaa !21
  %36 = load i64, ptr %7, align 8, !tbaa !21
  %37 = sub i64 %35, %36
  %38 = getelementptr inbounds nuw %"class.grpc_event_engine::experimental::TcpZerocopySendRecord", ptr %13, i32 0, i32 2
  %39 = getelementptr inbounds nuw %"struct.grpc_event_engine::experimental::TcpZerocopySendRecord::OutgoingOffset", ptr %38, i32 0, i32 1
  store i64 %37, ptr %39, align 8, !tbaa !22
  store i32 3, ptr %12, align 4
  br label %49

40:                                               ; preds = %20
  %41 = landingpad { ptr, i32 }
          cleanup
  %42 = extractvalue { ptr, i32 } %41, 0
  store ptr %42, ptr %10, align 8
  %43 = extractvalue { ptr, i32 } %41, 1
  store i32 %43, ptr %11, align 4
  call void @_ZN17grpc_event_engine12experimental5SliceD1Ev(ptr noundef nonnull align 8 dereferenceable(32) %9) #3
  call void @llvm.lifetime.end.p0(i64 32, ptr %9) #3
  call void @llvm.lifetime.end.p0(i64 8, ptr %8) #3
  call void @llvm.lifetime.end.p0(i64 8, ptr %7) #3
  br label %53

44:                                               ; preds = %30
  %45 = load i64, ptr %8, align 8, !tbaa !21
  %46 = load i64, ptr %7, align 8, !tbaa !21
  %47 = sub i64 %46, %45
  store i64 %47, ptr %7, align 8, !tbaa !21
  br label %48

48:                                               ; preds = %44
  store i32 0, ptr %12, align 4
  br label %49

49:                                               ; preds = %48, %34
  call void @llvm.lifetime.end.p0(i64 8, ptr %8) #3
  %50 = load i32, ptr %12, align 4
  switch i32 %50, label %58 [
    i32 0, label %51
    i32 3, label %52
  ]

51:                                               ; preds = %49
  br label %17, !llvm.loop !41

52:                                               ; preds = %49, %17
  call void @llvm.lifetime.end.p0(i64 8, ptr %7) #3
  ret void

53:                                               ; preds = %40
  %54 = load ptr, ptr %10, align 8
  %55 = load i32, ptr %11, align 4
  %56 = insertvalue { ptr, i32 } poison, ptr %54, 0
  %57 = insertvalue { ptr, i32 } %56, i32 %55, 1
  resume { ptr, i32 } %57

58:                                               ; preds = %49
  unreachable
}