; Function Attrs: mustprogress uwtable
define void @_ZN17grpc_event_engine12experimental21TcpZerocopySendRecord24UpdateOffsetForBytesSentEmm(ptr noundef nonnull align 8 dereferenceable(256) %0, i64 noundef %1, i64 noundef %2) local_unnamed_addr #5 align 2 personality ptr @__gxx_personality_v0 {
  %4 = alloca %"class.grpc_event_engine::experimental::Slice", align 8
  %5 = sub i64 %1, %2
  %.not19 = icmp eq i64 %5, 0
  br i1 %.not19, label %.loopexit, label %.lr.ph

.lr.ph:                                           ; preds = %3
  %6 = getelementptr inbounds nuw i8, ptr %0, i64 240
  %7 = getelementptr inbounds nuw i8, ptr %4, i64 8
  br label %8

8:                                                ; preds = %.lr.ph, %18
  %.01220 = phi i64 [ %5, %.lr.ph ], [ %19, %18 ]
  %9 = load i64, ptr %6, align 8, !tbaa !3
  %10 = add i64 %9, -1
  store i64 %10, ptr %6, align 8, !tbaa !3
  call void @llvm.lifetime.start.p0(i64 32, ptr nonnull %4) #41
  call void @_ZN17grpc_event_engine12experimental11SliceBuffer8RefSliceEm(ptr dead_on_unwind nonnull writable sret(%"class.grpc_event_engine::experimental::Slice") align 8 %4, ptr noundef nonnull align 8 dereferenceable(232) %0, i64 noundef %10)
  %11 = load ptr, ptr %4, align 8, !tbaa !28
  %.not.i.i = icmp eq ptr %11, null
  %12 = load i64, ptr %7, align 8
  %13 = and i64 %12, 255
  %14 = select i1 %.not.i.i, i64 %13, i64 %12
  call void @_ZN17grpc_event_engine12experimental5SliceD1Ev(ptr noundef nonnull align 8 dereferenceable(32) %4) #41
  call void @llvm.lifetime.end.p0(i64 32, ptr nonnull %4) #41
  %15 = icmp ugt i64 %14, %.01220
  br i1 %15, label %.thread, label %18

.thread:                                          ; preds = %8
  %16 = sub nuw i64 %14, %.01220
  %17 = getelementptr inbounds nuw i8, ptr %0, i64 248
  store i64 %16, ptr %17, align 8, !tbaa !16
  br label %.loopexit

18:                                               ; preds = %8
  %19 = sub nuw i64 %.01220, %14
  %.not = icmp eq i64 %19, 0
  br i1 %.not, label %.loopexit, label %8

.loopexit:                                        ; preds = %18, %3, %.thread
  ret void
}